target datalayout = "e-m:e-p270:32:32-p271:32:32-p272:64:64-i64:64-i128:128-f80:128-n8:16:32:64-S128"
target triple = "x86_64-pc-linux-gnu"

%struct.SN_env = type { ptr, i32, i32, i32, i32, i32, ptr, ptr }

@s_106 = internal constant [4 x i8] c"\CE\BC\CE\B1", align 1

; Function Attrs: nounwind uwtable
define internal i32 @r_step6(ptr noundef %0) #0 {
  %2 = alloca i32, align 4
  %3 = alloca ptr, align 8
  %4 = alloca i32, align 4
  %5 = alloca i32, align 4
  %6 = alloca i32, align 4
  %7 = alloca i32, align 4
  store ptr %0, ptr %3, align 8
  call void @llvm.lifetime.start.p0(i64 4, ptr %4) #3
  %8 = load ptr, ptr %3, align 8
  %9 = getelementptr inbounds nuw %struct.SN_env, ptr %8, i32 0, i32 2
  %10 = load i32, ptr %9, align 4
  %11 = load ptr, ptr %3, align 8
  %12 = getelementptr inbounds nuw %struct.SN_env, ptr %11, i32 0, i32 1
  %13 = load i32, ptr %12, align 8
  %14 = sub i32 %10, %13
  store i32 %14, ptr %4, align 4
  %15 = load ptr, ptr %3, align 8
  %16 = getelementptr inbounds nuw %struct.SN_env, ptr %15, i32 0, i32 1
  %17 = load i32, ptr %16, align 8
  %18 = load ptr, ptr %3, align 8
  %19 = getelementptr inbounds nuw %struct.SN_env, ptr %18, i32 0, i32 5
  store i32 %17, ptr %19, align 8
  %20 = load ptr, ptr %3, align 8
  %21 = call i32 @find_among_b(ptr noundef %20, ptr noundef @a_65, i32 noundef 3)
  %22 = icmp ne i32 %21, 0
  br i1 %22, label %24, label %23

23:                                               ; preds = %1
  br label %40

24:                                               ; preds = %1
  %25 = load ptr, ptr %3, align 8
  %26 = getelementptr inbounds nuw %struct.SN_env, ptr %25, i32 0, i32 1
  %27 = load i32, ptr %26, align 8
  %28 = load ptr, ptr %3, align 8
  %29 = getelementptr inbounds nuw %struct.SN_env, ptr %28, i32 0, i32 4
  store i32 %27, ptr %29, align 4
  call void @llvm.lifetime.start.p0(i64 4, ptr %5) #3
  %30 = load ptr, ptr %3, align 8
  %31 = call i32 @slice_from_s(ptr noundef %30, i32 noundef 4, ptr noundef @s_106)
  store i32 %31, ptr %5, align 4
  %32 = load i32, ptr %5, align 4
  %33 = icmp slt i32 %32, 0
  br i1 %33, label %34, label %36

34:                                               ; preds = %24
  %35 = load i32, ptr %5, align 4
  store i32 %35, ptr %2, align 4
  store i32 1, ptr %6, align 4
  br label %37

36:                                               ; preds = %24
  store i32 0, ptr %6, align 4
  br label %37

37:                                               ; preds = %36, %34
  call void @llvm.lifetime.end.p0(i64 4, ptr %5) #3
  %38 = load i32, ptr %6, align 4
  switch i32 %38, label %48 [
    i32 0, label %39
  ]

39:                                               ; preds = %37
  br label %40

40:                                               ; preds = %39, %23
  %41 = load ptr, ptr %3, align 8
  %42 = getelementptr inbounds nuw %struct.SN_env, ptr %41, i32 0, i32 2
  %43 = load i32, ptr %42, align 4
  %44 = load i32, ptr %4, align 4
  %45 = sub i32 %43, %44
  %46 = load ptr, ptr %3, align 8
  %47 = getelementptr inbounds nuw %struct.SN_env, ptr %46, i32 0, i32 1
  store i32 %45, ptr %47, align 8
  store i32 0, ptr %6, align 4
  br label %48

48:                                               ; preds = %40, %37
  call void @llvm.lifetime.end.p0(i64 4, ptr %4) #3
  %49 = load i32, ptr %6, align 4
  switch i32 %49, label %86 [
    i32 0, label %50
    i32 1, label %84
  ]

50:                                               ; preds = %48
  %51 = load ptr, ptr %3, align 8
  %52 = getelementptr inbounds nuw %struct.SN_env, ptr %51, i32 0, i32 7
  %53 = load ptr, ptr %52, align 8
  %54 = getelementptr inbounds i32, ptr %53, i64 0
  %55 = load i32, ptr %54, align 4
  %56 = icmp ne i32 %55, 0
  br i1 %56, label %58, label %57

57:                                               ; preds = %50
  store i32 0, ptr %2, align 4
  br label %84

58:                                               ; preds = %50
  %59 = load ptr, ptr %3, align 8
  %60 = getelementptr inbounds nuw %struct.SN_env, ptr %59, i32 0, i32 1
  %61 = load i32, ptr %60, align 8
  %62 = load ptr, ptr %3, align 8
  %63 = getelementptr inbounds nuw %struct.SN_env, ptr %62, i32 0, i32 5
  store i32 %61, ptr %63, align 8
  %64 = load ptr, ptr %3, align 8
  %65 = call i32 @find_among_b(ptr noundef %64, ptr noundef @a_66, i32 noundef 84)
  %66 = icmp ne i32 %65, 0
  br i1 %66, label %68, label %67

67:                                               ; preds = %58
  store i32 0, ptr %2, align 4
  br label %84

68:                                               ; preds = %58
  %69 = load ptr, ptr %3, align 8
  %70 = getelementptr inbounds nuw %struct.SN_env, ptr %69, i32 0, i32 1
  %71 = load i32, ptr %70, align 8
  %72 = load ptr, ptr %3, align 8
  %73 = getelementptr inbounds nuw %struct.SN_env, ptr %72, i32 0, i32 4
  store i32 %71, ptr %73, align 4
  call void @llvm.lifetime.start.p0(i64 4, ptr %7) #3
  %74 = load ptr, ptr %3, align 8
  %75 = call i32 @slice_del(ptr noundef %74)
  store i32 %75, ptr %7, align 4
  %76 = load i32, ptr %7, align 4
  %77 = icmp slt i32 %76, 0
  br i1 %77, label %78, label %80

78:                                               ; preds = %68
  %79 = load i32, ptr %7, align 4
  store i32 %79, ptr %2, align 4
  store i32 1, ptr %6, align 4
  br label %81

80:                                               ; preds = %68
  store i32 0, ptr %6, align 4
  br label %81

81:                                               ; preds = %80, %78
  call void @llvm.lifetime.end.p0(i64 4, ptr %7) #3
  %82 = load i32, ptr %6, align 4
  switch i32 %82, label %86 [
    i32 0, label %83
    i32 1, label %84
  ]

83:                                               ; preds = %81
  store i32 1, ptr %2, align 4
  br label %84

84:                                               ; preds = %83, %81, %67, %57, %48
  %85 = load i32, ptr %2, align 4
  ret i32 %85

86:                                               ; preds = %81, %48
  unreachable
}