; Function Attrs: nounwind uwtable
define internal fastcc i32 @r_step6(ptr noundef initializes((24, 28)) %0) unnamed_addr #0 {
  %2 = getelementptr inbounds nuw i8, ptr %0, i64 12
  %3 = load i32, ptr %2, align 4
  %4 = getelementptr inbounds nuw i8, ptr %0, i64 8
  %5 = load i32, ptr %4, align 8
  %.neg = sub i32 %5, %3
  %6 = getelementptr inbounds nuw i8, ptr %0, i64 24
  store i32 %5, ptr %6, align 8
  %7 = tail call i32 @find_among_b(ptr noundef %0, ptr noundef nonnull @a_65, i32 noundef 3) #2
  %.not = icmp eq i32 %7, 0
  br i1 %.not, label %13, label %8

8:                                                ; preds = %1
  %9 = load i32, ptr %4, align 8
  %10 = getelementptr inbounds nuw i8, ptr %0, i64 20
  store i32 %9, ptr %10, align 4
  %11 = tail call i32 @slice_from_s(ptr noundef nonnull %0, i32 noundef 4, ptr noundef nonnull @s_106) #2
  %12 = icmp sgt i32 %11, -1
  br i1 %12, label %13, label %26

13:                                               ; preds = %1, %8
  %14 = load i32, ptr %2, align 4
  %15 = add i32 %.neg, %14
  store i32 %15, ptr %4, align 8
  %16 = getelementptr inbounds nuw i8, ptr %0, i64 40
  %17 = load ptr, ptr %16, align 8
  %18 = load i32, ptr %17, align 4
  %.not29 = icmp eq i32 %18, 0
  br i1 %.not29, label %26, label %19

19:                                               ; preds = %13
  store i32 %15, ptr %6, align 8
  %20 = tail call i32 @find_among_b(ptr noundef nonnull %0, ptr noundef nonnull @a_66, i32 noundef 84) #2
  %.not30 = icmp eq i32 %20, 0
  br i1 %.not30, label %26, label %21

21:                                               ; preds = %19
  %22 = load i32, ptr %4, align 8
  %23 = getelementptr inbounds nuw i8, ptr %0, i64 20
  store i32 %22, ptr %23, align 4
  %24 = tail call i32 @slice_del(ptr noundef nonnull %0) #2
  %25 = icmp sgt i32 %24, -1
  %spec.select = select i1 %25, i32 1, i32 %24
  br label %26

26:                                               ; preds = %8, %21, %19, %13
  %.3 = phi i32 [ 0, %13 ], [ 0, %19 ], [ %spec.select, %21 ], [ %11, %8 ]
  ret i32 %.3
}